; Function Attrs: mustprogress uwtable
define void @_ZN10PacketList22unsetAllTimeReferencesEv(ptr nocapture noundef nonnull align 8 dereferenceable(464) %0) local_unnamed_addr #0 align 2 {
  %2 = getelementptr inbounds i8, ptr %0, i64 64
  %3 = load ptr, ptr %2, align 8
  %.not = icmp eq ptr %3, null
  br i1 %.not, label %9, label %4

4:                                                ; preds = %1
  %5 = getelementptr inbounds i8, ptr %0, i64 40
  %6 = load ptr, ptr %5, align 8
  %.not1 = icmp eq ptr %6, null
  br i1 %.not1, label %9, label %7

7:                                                ; preds = %4
  tail call void @_ZN15PacketListModel20unsetAllFrameRefTimeEv(ptr noundef nonnull align 8 dereferenceable(164) %6)
  %8 = getelementptr inbounds i8, ptr %0, i64 237
  store i8 1, ptr %8, align 1
  br label %9

9:                                                ; preds = %1, %4, %7
  ret void
}